target datalayout = "e-m:e-p270:32:32-p271:32:32-p272:64:64-i64:64-i128:128-f80:128-n8:16:32:64-S128"
target triple = "x86_64-pc-linux-gnu"

%struct.pmix_coord = type { i8, ptr, i64 }

; Function Attrs: inlinehint nounwind uwtable
define internal void @pmix_bfrops_base_tma_coord_construct(ptr noundef %0, ptr noundef %1) #1 {
  %3 = alloca ptr, align 8
  %4 = alloca ptr, align 8
  store ptr %0, ptr %3, align 8, !tbaa !60
  store ptr %1, ptr %4, align 8, !tbaa !8
  %5 = load ptr, ptr %3, align 8, !tbaa !60
  %6 = icmp eq ptr null, %5
  br i1 %6, label %7, label %8

7:                                                ; preds = %2
  br label %15

8:                                                ; preds = %2
  %9 = load ptr, ptr %3, align 8, !tbaa !60
  %10 = getelementptr inbounds nuw %struct.pmix_coord, ptr %9, i32 0, i32 0
  store i8 0, ptr %10, align 8, !tbaa !62
  %11 = load ptr, ptr %3, align 8, !tbaa !60
  %12 = getelementptr inbounds nuw %struct.pmix_coord, ptr %11, i32 0, i32 1
  store ptr null, ptr %12, align 8, !tbaa !65
  %13 = load ptr, ptr %3, align 8, !tbaa !60
  %14 = getelementptr inbounds nuw %struct.pmix_coord, ptr %13, i32 0, i32 2
  store i64 0, ptr %14, align 8, !tbaa !66
  br label %15

15:                                               ; preds = %8, %7
  ret void
}

; Function Attrs: nounwind uwtable
define void @PMIx_Coord_construct(ptr noundef %0) #0 {
  %2 = alloca ptr, align 8
  store ptr %0, ptr %2, align 8, !tbaa !60
  %3 = load ptr, ptr %2, align 8, !tbaa !60
  call void @pmix_bfrops_base_tma_coord_construct(ptr noundef %3, ptr noundef null)
  ret void
}