; Function Attrs: mustprogress nofree norecurse nosync nounwind willreturn memory(argmem: write) uwtable
define void @PMIx_Coord_construct(ptr noundef writeonly captures(address_is_null) %0) local_unnamed_addr #9 {
  %2 = icmp eq ptr %0, null
  br i1 %2, label %pmix_bfrops_base_tma_coord_construct.exit, label %3

3:                                                ; preds = %1
  store i8 0, ptr %0, align 8, !tbaa !31
  %4 = getelementptr inbounds nuw i8, ptr %0, i64 8
  tail call void @llvm.memset.p0.i64(ptr noundef nonnull align 8 dereferenceable(16) %4, i8 0, i64 16, i1 false)
  br label %pmix_bfrops_base_tma_coord_construct.exit

pmix_bfrops_base_tma_coord_construct.exit:        ; preds = %1, %3
  ret void
}